; ModuleID = 'bench/oniguruma/original/reggnu.ll'
source_filename = "bench/oniguruma/original/reggnu.ll"
target datalayout = "e-m:e-p270:32:32-p271:32:32-p272:64:64-i64:64-i128:128-f80:128-n8:16:32:64-S128"
target triple = "x86_64-pc-linux-gnu"

%struct.OnigEncodingTypeST = type { ptr, ptr, i32, i32, ptr, ptr, ptr, ptr, ptr, ptr, ptr, ptr, ptr, ptr, ptr, ptr, ptr, ptr, ptr, i32, i32, i32 }
%struct.OnigErrorInfo = type { ptr, ptr, ptr }

@OnigDefaultCaseFoldFlag = external local_unnamed_addr global i32, align 4
@OnigEncDefaultCharEncoding = external local_unnamed_addr global ptr, align 8
@OnigDefaultSyntax = external local_unnamed_addr global ptr, align 8
@OnigEncodingASCII = external global %struct.OnigEncodingTypeST, align 8
@OnigEncodingEUC_JP = external global %struct.OnigEncodingTypeST, align 8
@OnigEncodingSJIS = external global %struct.OnigEncodingTypeST, align 8
@OnigEncodingUTF8 = external global %struct.OnigEncodingTypeST, align 8
@switch.table.re_mbcinit = private unnamed_addr constant [4 x ptr] [ptr @OnigEncodingASCII, ptr @OnigEncodingEUC_JP, ptr @OnigEncodingSJIS, ptr @OnigEncodingUTF8], align 8

; Function Attrs: nounwind uwtable
define dso_local void @re_free_registers(ptr noundef %0) local_unnamed_addr #0 {
  tail call void @onig_region_free(ptr noundef %0, i32 noundef 0) #4
  ret void
}

declare void @onig_region_free(ptr noundef, i32 noundef) local_unnamed_addr #1

; Function Attrs: nounwind uwtable
define dso_local i32 @re_adjust_startpos(ptr noundef readonly captures(none) %0, ptr noundef %1, i32 noundef %2, i32 noundef %3, i32 noundef %4) local_unnamed_addr #0 {
  %6 = icmp sgt i32 %3, 0
  br i1 %6, label %7, label %28

7:                                                ; preds = %5
  %8 = getelementptr inbounds nuw i8, ptr %0, i64 96
  %9 = load ptr, ptr %8, align 8, !tbaa !4
  %10 = getelementptr inbounds nuw i8, ptr %9, i64 16
  %11 = load i32, ptr %10, align 8, !tbaa !12
  %.not = icmp ne i32 %11, 1
  %12 = icmp slt i32 %3, %2
  %or.cond = and i1 %12, %.not
  br i1 %or.cond, label %13, label %28

13:                                               ; preds = %7
  %14 = zext nneg i32 %3 to i64
  %15 = getelementptr inbounds nuw i8, ptr %1, i64 %14
  %16 = icmp sgt i32 %4, 0
  br i1 %16, label %17, label %19

17:                                               ; preds = %13
  %18 = tail call ptr @onigenc_get_right_adjust_char_head(ptr noundef nonnull %9, ptr noundef %1, ptr noundef nonnull %15) #4
  br label %23

19:                                               ; preds = %13
  %20 = getelementptr inbounds nuw i8, ptr %9, i64 104
  %21 = load ptr, ptr %20, align 8, !tbaa !14
  %22 = tail call ptr %21(ptr noundef %1, ptr noundef nonnull %15) #4
  br label %23

23:                                               ; preds = %19, %17
  %.016 = phi ptr [ %18, %17 ], [ %22, %19 ]
  %24 = ptrtoint ptr %.016 to i64
  %25 = ptrtoint ptr %1 to i64
  %26 = sub i64 %24, %25
  %27 = trunc i64 %26 to i32
  br label %28

28:                                               ; preds = %5, %7, %23
  %.0 = phi i32 [ %27, %23 ], [ %3, %7 ], [ %3, %5 ]
  ret i32 %.0
}

; Function Attrs: mustprogress nocallback nofree nosync nounwind willreturn memory(argmem: readwrite)
declare void @llvm.lifetime.start.p0(i64 immarg, ptr captures(none)) #2

declare ptr @onigenc_get_right_adjust_char_head(ptr noundef, ptr noundef, ptr noundef) local_unnamed_addr #1

; Function Attrs: mustprogress nocallback nofree nosync nounwind willreturn memory(argmem: readwrite)
declare void @llvm.lifetime.end.p0(i64 immarg, ptr captures(none)) #2

; Function Attrs: nounwind uwtable
define dso_local i32 @re_match(ptr noundef %0, ptr noundef %1, i32 noundef %2, i32 noundef %3, ptr noundef %4) local_unnamed_addr #0 {
  %6 = sext i32 %2 to i64
  %7 = getelementptr inbounds i8, ptr %1, i64 %6
  %8 = sext i32 %3 to i64
  %9 = getelementptr inbounds i8, ptr %1, i64 %8
  %10 = tail call i32 @onig_match(ptr noundef %0, ptr noundef %1, ptr noundef %7, ptr noundef %9, ptr noundef %4, i32 noundef 0) #4
  ret i32 %10
}

declare i32 @onig_match(ptr noundef, ptr noundef, ptr noundef, ptr noundef, ptr noundef, i32 noundef) local_unnamed_addr #1

; Function Attrs: nounwind uwtable
define dso_local i32 @re_search(ptr noundef %0, ptr noundef %1, i32 noundef %2, i32 noundef %3, i32 noundef %4, ptr noundef %5) local_unnamed_addr #0 {
  %7 = sext i32 %2 to i64
  %8 = getelementptr inbounds i8, ptr %1, i64 %7
  %9 = sext i32 %3 to i64
  %10 = getelementptr inbounds i8, ptr %1, i64 %9
  %11 = sext i32 %4 to i64
  %12 = getelementptr inbounds i8, ptr %10, i64 %11
  %13 = tail call i32 @onig_search(ptr noundef %0, ptr noundef %1, ptr noundef %8, ptr noundef %10, ptr noundef %12, ptr noundef %5, i32 noundef 0) #4
  ret i32 %13
}

declare i32 @onig_search(ptr noundef, ptr noundef, ptr noundef, ptr noundef, ptr noundef, ptr noundef, i32 noundef) local_unnamed_addr #1

; Function Attrs: nounwind uwtable
define dso_local i32 @re_compile_pattern(ptr noundef %0, i32 noundef %1, ptr noundef %2, ptr noundef %3) local_unnamed_addr #0 {
  %5 = alloca %struct.OnigErrorInfo, align 8
  call void @llvm.lifetime.start.p0(i64 24, ptr nonnull %5) #4
  %6 = sext i32 %1 to i64
  %7 = getelementptr inbounds i8, ptr %0, i64 %6
  %8 = call i32 @onig_compile(ptr noundef %2, ptr noundef %0, ptr noundef %7, ptr noundef nonnull %5) #4
  %9 = icmp ne i32 %8, 0
  %10 = icmp ne ptr %3, null
  %or.cond = and i1 %10, %9
  br i1 %or.cond, label %11, label %13

11:                                               ; preds = %4
  %12 = call i32 (ptr, i32, ...) @onig_error_code_to_str(ptr noundef nonnull %3, i32 noundef %8, ptr noundef nonnull %5) #4
  br label %13

13:                                               ; preds = %11, %4
  call void @llvm.lifetime.end.p0(i64 24, ptr nonnull %5) #4
  ret i32 %8
}

declare i32 @onig_compile(ptr noundef, ptr noundef, ptr noundef, ptr noundef) local_unnamed_addr #1

declare i32 @onig_error_code_to_str(ptr noundef, i32 noundef, ...) local_unnamed_addr #1

; Function Attrs: nounwind uwtable
define dso_local void @re_free_pattern(ptr noundef %0) local_unnamed_addr #0 {
  tail call void @onig_free(ptr noundef %0) #4
  ret void
}

declare void @onig_free(ptr noundef) local_unnamed_addr #1

; Function Attrs: nounwind uwtable
define dso_local i32 @re_alloc_pattern(ptr noundef writeonly captures(none) initializes((0, 8)) %0) local_unnamed_addr #0 {
  %2 = tail call noalias dereferenceable_or_null(456) ptr @malloc(i64 noundef 456) #5
  store ptr %2, ptr %0, align 8, !tbaa !15
  %3 = icmp eq ptr %2, null
  br i1 %3, label %9, label %4

4:                                                ; preds = %1
  %5 = load i32, ptr @OnigDefaultCaseFoldFlag, align 4, !tbaa !17
  %6 = load ptr, ptr @OnigEncDefaultCharEncoding, align 8, !tbaa !18
  %7 = load ptr, ptr @OnigDefaultSyntax, align 8, !tbaa !19
  %8 = tail call i32 @onig_reg_init(ptr noundef nonnull %2, i32 noundef 0, i32 noundef %5, ptr noundef %6, ptr noundef %7) #4
  br label %9

9:                                                ; preds = %1, %4
  %.0 = phi i32 [ %8, %4 ], [ -5, %1 ]
  ret i32 %.0
}

; Function Attrs: mustprogress nofree nounwind willreturn allockind("alloc,uninitialized") allocsize(0) memory(inaccessiblemem: readwrite)
declare noalias noundef ptr @malloc(i64 noundef) local_unnamed_addr #3

declare i32 @onig_reg_init(ptr noundef, i32 noundef, i32 noundef, ptr noundef, ptr noundef) local_unnamed_addr #1

; Function Attrs: nounwind uwtable
define dso_local void @re_set_casetable(ptr noundef %0) local_unnamed_addr #0 {
  tail call void @onigenc_set_default_caseconv_table(ptr noundef %0) #4
  ret void
}

declare void @onigenc_set_default_caseconv_table(ptr noundef) local_unnamed_addr #1

; Function Attrs: nounwind uwtable
define dso_local void @re_mbcinit(i32 noundef %0) local_unnamed_addr #0 {
  %2 = alloca ptr, align 8
  call void @llvm.lifetime.start.p0(i64 8, ptr nonnull %2) #4
  %3 = icmp ult i32 %0, 4
  br i1 %3, label %switch.lookup, label %8

switch.lookup:                                    ; preds = %1
  %4 = zext nneg i32 %0 to i64
  %switch.gep = getelementptr inbounds nuw [4 x ptr], ptr @switch.table.re_mbcinit, i64 0, i64 %4
  %switch.load = load ptr, ptr %switch.gep, align 8
  store ptr %switch.load, ptr %2, align 8, !tbaa !18
  %5 = call i32 @onig_initialize(ptr noundef nonnull %2, i32 noundef 1) #4
  %6 = load ptr, ptr %2, align 8, !tbaa !18
  %7 = call i32 @onigenc_set_default_encoding(ptr noundef %6) #4
  br label %8

8:                                                ; preds = %1, %switch.lookup
  call void @llvm.lifetime.end.p0(i64 8, ptr nonnull %2) #4
  ret void
}

declare i32 @onig_initialize(ptr noundef, i32 noundef) local_unnamed_addr #1

declare i32 @onigenc_set_default_encoding(ptr noundef) local_unnamed_addr #1


!llvm.module.flags = !{!0, !1, !2, !3}

!0 = !{i32 1, !"wchar_size", i32 4}
!1 = !{i32 8, !"PIC Level", i32 2}
!2 = !{i32 7, !"PIE Level", i32 2}
!3 = !{i32 7, !"uwtable", i32 2}
!4 = !{!5, !11, i64 96}
!5 = !{!"re_pattern_buffer", !6, i64 0, !6, i64 8, !6, i64 16, !9, i64 24, !9, i64 28, !10, i64 32, !10, i64 40, !9, i64 48, !9, i64 52, !9, i64 56, !9, i64 60, !9, i64 64, !9, i64 68, !9, i64 72, !9, i64 76, !9, i64 80, !6, i64 88, !11, i64 96, !9, i64 104, !6, i64 112, !9, i64 120, !6, i64 128, !9, i64 136, !9, i64 140, !9, i64 144, !9, i64 148, !9, i64 152, !9, i64 156, !10, i64 160, !10, i64 168, !7, i64 176, !9, i64 432, !9, i64 436, !9, i64 440, !6, i64 448}
!6 = !{!"any pointer", !7, i64 0}
!7 = !{!"omnipotent char", !8, i64 0}
!8 = !{!"Simple C/C++ TBAA"}
!9 = !{!"int", !7, i64 0}
!10 = !{!"p1 omnipotent char", !6, i64 0}
!11 = !{!"p1 _ZTS18OnigEncodingTypeST", !6, i64 0}
!12 = !{!13, !9, i64 16}
!13 = !{!"OnigEncodingTypeST", !6, i64 0, !10, i64 8, !9, i64 16, !9, i64 20, !6, i64 24, !6, i64 32, !6, i64 40, !6, i64 48, !6, i64 56, !6, i64 64, !6, i64 72, !6, i64 80, !6, i64 88, !6, i64 96, !6, i64 104, !6, i64 112, !6, i64 120, !6, i64 128, !6, i64 136, !9, i64 144, !9, i64 148, !9, i64 152}
!14 = !{!13, !6, i64 104}
!15 = !{!16, !16, i64 0}
!16 = !{!"p1 _ZTS17re_pattern_buffer", !6, i64 0}
!17 = !{!9, !9, i64 0}
!18 = !{!11, !11, i64 0}
!19 = !{!6, !6, i64 0}
